target datalayout = "e-m:e-p270:32:32-p271:32:32-p272:64:64-i64:64-i128:128-f80:128-n8:16:32:64-S128"
target triple = "x86_64-pc-linux-gnu"

@def_lru = internal constant [8 x i8] c"\00 @`\80\A0\C0\FF", align 1

; Function Attrs: nounwind uwtable
define internal void @default_setup_lru(ptr noundef %0) #0 {
  %2 = alloca ptr, align 8
  %3 = alloca i32, align 4
  store ptr %0, ptr %2, align 8, !tbaa !23
  call void @llvm.lifetime.start.p0(i64 4, ptr %3) #9
  store i32 0, ptr %3, align 4, !tbaa !26
  br label %4

4:                                                ; preds = %13, %1
  %5 = load i32, ptr %3, align 4, !tbaa !26
  %6 = icmp slt i32 %5, 3
  br i1 %6, label %7, label %16

7:                                                ; preds = %4
  %8 = load ptr, ptr %2, align 8, !tbaa !23
  %9 = load i32, ptr %3, align 4, !tbaa !26
  %10 = sext i32 %9 to i64
  %11 = getelementptr inbounds [8 x i8], ptr %8, i64 %10
  %12 = getelementptr inbounds [8 x i8], ptr %11, i64 0, i64 0
  call void @llvm.memcpy.p0.p0.i64(ptr align 1 %12, ptr align 1 @def_lru, i64 8, i1 false)
  br label %13

13:                                               ; preds = %7
  %14 = load i32, ptr %3, align 4, !tbaa !26
  %15 = add nsw i32 %14, 1
  store i32 %15, ptr %3, align 4, !tbaa !26
  br label %4, !llvm.loop !70

16:                                               ; preds = %4
  call void @llvm.lifetime.end.p0(i64 4, ptr %3) #9
  ret void
}