; Function Attrs: nofree norecurse nosync nounwind memory(argmem: write) uwtable
define internal void @default_setup_lru(ptr noundef writeonly captures(none) %0) #7 {
  br label %2

2:                                                ; preds = %1, %2
  %indvars.iv = phi i64 [ 0, %1 ], [ %indvars.iv.next, %2 ]
  %3 = getelementptr inbounds nuw [8 x i8], ptr %0, i64 %indvars.iv
  store i64 -17837925278408704, ptr %3, align 1
  %indvars.iv.next = add nuw nsw i64 %indvars.iv, 1
  %exitcond.not = icmp eq i64 %indvars.iv.next, 3
  br i1 %exitcond.not, label %4, label %2, !llvm.loop !67

4:                                                ; preds = %2
  ret void
}